; Function Attrs: nounwind uwtable
define void @php_info_print_table_end() local_unnamed_addr #0 {
  %1 = load i32, ptr getelementptr inbounds (%struct._sapi_module_struct, ptr @sapi_module, i64 0, i32 32), align 8
  %.not = icmp eq i32 %1, 0
  br i1 %.not, label %2, label %4

2:                                                ; preds = %0
  %3 = tail call i64 @php_output_write(ptr noundef nonnull @.str.113, i64 noundef 9) #14
  br label %4

4:                                                ; preds = %2, %0
  ret void
}